target datalayout = "e-m:e-p270:32:32-p271:32:32-p272:64:64-i64:64-i128:128-f80:128-n8:16:32:64-S128"
target triple = "x86_64-pc-linux-gnu"

%struct.Vmem = type { ptr, i64, i64 }
%union.SourceSpan = type { i64 }
%struct.Ast_ = type { %union.SourceSpan, i32, i8, %union.anon.62 }
%union.anon.62 = type { %struct.AstDocDirective_ }
%struct.AstDocDirective_ = type { i8, %union.anon.65 }
%union.anon.65 = type { %struct.anon.66 }
%struct.anon.66 = type { ptr, %union.SourceSpan, i8 }
%struct.AstCompoundStmt = type { i32 }

@ast_arena = external global %struct.Vmem, align 8

; Function Attrs: nounwind uwtable
define internal i32 @astid(ptr noundef %0) #0 {
  %2 = alloca ptr, align 8
  store ptr %0, ptr %2, align 8
  %3 = load ptr, ptr %2, align 8
  %4 = load ptr, ptr @ast_arena, align 8
  %5 = ptrtoint ptr %3 to i64
  %6 = ptrtoint ptr %4 to i64
  %7 = sub i64 %5, %6
  %8 = sdiv exact i64 %7, 48
  %9 = trunc i64 %8 to i32
  ret i32 %9
}

; Function Attrs: nounwind uwtable
define internal ptr @astptr(i32 noundef %0) #0 {
  %2 = alloca i32, align 4
  store i32 %0, ptr %2, align 4
  %3 = load ptr, ptr @ast_arena, align 8
  %4 = load i32, ptr %2, align 4
  %5 = zext i32 %4 to i64
  %6 = getelementptr inbounds %struct.Ast_, ptr %3, i64 %5
  ret ptr %6
}

; Function Attrs: nounwind uwtable
define internal ptr @ast_calloc() #0 {
  %1 = call ptr @vmem_alloc(ptr noundef @ast_arena, i64 noundef 48)
  ret ptr %1
}

; Function Attrs: nounwind uwtable
define dso_local void @sema_append_contract_asserts(i32 noundef %0, ptr noundef %1) #0 {
  %3 = alloca ptr, align 8
  %4 = alloca ptr, align 8
  %5 = alloca ptr, align 8
  %6 = alloca %union.SourceSpan, align 8
  %7 = alloca i32, align 4
  %8 = alloca ptr, align 8
  %9 = alloca i32, align 4
  %10 = alloca ptr, align 8
  %11 = alloca ptr, align 8
  store i32 %0, ptr %9, align 4
  store ptr %1, ptr %10, align 8
  %12 = load i32, ptr %9, align 4
  %13 = icmp ne i32 %12, 0
  br i1 %13, label %15, label %14

14:                                               ; preds = %2
  br label %54

15:                                               ; preds = %2
  %16 = load ptr, ptr %10, align 8
  %17 = getelementptr inbounds %struct.Ast_, ptr %16, i32 0, i32 0
  %18 = getelementptr inbounds %union.SourceSpan, ptr %17, i32 0, i32 0
  %19 = load i64, ptr %18, align 8
  store i64 %19, ptr %6, align 8
  store i32 6, ptr %7, align 4
  %20 = call ptr @ast_calloc()
  store ptr %20, ptr %8, align 8
  %21 = load ptr, ptr %8, align 8
  call void @llvm.memcpy.p0.p0.i64(ptr align 8 %21, ptr align 8 %6, i64 8, i1 false)
  %22 = load i32, ptr %7, align 4
  %23 = load ptr, ptr %8, align 8
  %24 = getelementptr inbounds %struct.Ast_, ptr %23, i32 0, i32 2
  %25 = trunc i32 %22 to i8
  store i8 %25, ptr %24, align 4
  %26 = load ptr, ptr %8, align 8
  store ptr %26, ptr %11, align 8
  %27 = load i32, ptr %9, align 4
  %28 = load ptr, ptr %11, align 8
  %29 = getelementptr inbounds %struct.Ast_, ptr %28, i32 0, i32 3
  %30 = getelementptr inbounds %struct.AstCompoundStmt, ptr %29, i32 0, i32 0
  store i32 %27, ptr %30, align 8
  %31 = load ptr, ptr %10, align 8
  %32 = getelementptr inbounds %struct.Ast_, ptr %31, i32 0, i32 3
  %33 = getelementptr inbounds %struct.AstCompoundStmt, ptr %32, i32 0, i32 0
  %34 = load ptr, ptr %11, align 8
  store ptr %33, ptr %3, align 8
  store ptr %34, ptr %4, align 8
  %35 = load ptr, ptr %4, align 8
  store ptr %35, ptr %5, align 8
  br label %36

36:                                               ; preds = %41, %15
  %37 = load ptr, ptr %5, align 8
  %38 = getelementptr inbounds %struct.Ast_, ptr %37, i32 0, i32 1
  %39 = load i32, ptr %38, align 8
  %40 = icmp ne i32 %39, 0
  br i1 %40, label %41, label %46

41:                                               ; preds = %36
  %42 = load ptr, ptr %5, align 8
  %43 = getelementptr inbounds %struct.Ast_, ptr %42, i32 0, i32 1
  %44 = load i32, ptr %43, align 8
  %45 = call ptr @astptr(i32 noundef %44)
  store ptr %45, ptr %5, align 8
  br label %36, !llvm.loop !7

46:                                               ; preds = %36
  %47 = load ptr, ptr %3, align 8
  %48 = load i32, ptr %47, align 4
  %49 = load ptr, ptr %5, align 8
  %50 = getelementptr inbounds %struct.Ast_, ptr %49, i32 0, i32 1
  store i32 %48, ptr %50, align 8
  %51 = load ptr, ptr %4, align 8
  %52 = call i32 @astid(ptr noundef %51)
  %53 = load ptr, ptr %3, align 8
  store i32 %52, ptr %53, align 4
  br label %54

54:                                               ; preds = %46, %14
  ret void
}