; Function Attrs: nounwind uwtable
define dso_local void @sema_append_contract_asserts(i32 noundef %0, ptr nocapture noundef %1) local_unnamed_addr #0 {
  %.not = icmp eq i32 %0, 0
  br i1 %.not, label %23, label %3

3:                                                ; preds = %2
  %4 = load i64, ptr %1, align 8
  %5 = tail call ptr @vmem_alloc(ptr noundef nonnull @ast_arena, i64 noundef 48) #9
  store i64 %4, ptr %5, align 8
  %6 = getelementptr inbounds i8, ptr %5, i64 12
  store i8 6, ptr %6, align 4
  %7 = getelementptr inbounds i8, ptr %5, i64 16
  store i32 %0, ptr %7, align 8
  %8 = getelementptr inbounds i8, ptr %1, i64 16
  %9 = getelementptr inbounds i8, ptr %5, i64 8
  %10 = load i32, ptr %9, align 8
  %.not1819 = icmp eq i32 %10, 0
  %.pre = load ptr, ptr @ast_arena, align 8
  br i1 %.not1819, label %._crit_edge, label %.lr.ph

.lr.ph:                                           ; preds = %3, %.lr.ph
  %11 = phi i32 [ %15, %.lr.ph ], [ %10, %3 ]
  %12 = zext i32 %11 to i64
  %13 = getelementptr inbounds %struct.Ast_, ptr %.pre, i64 %12
  %14 = getelementptr inbounds i8, ptr %13, i64 8
  %15 = load i32, ptr %14, align 8
  %.not18 = icmp eq i32 %15, 0
  br i1 %.not18, label %._crit_edge, label %.lr.ph, !llvm.loop !36

._crit_edge:                                      ; preds = %.lr.ph, %3
  %.0.lcssa = phi ptr [ %5, %3 ], [ %13, %.lr.ph ]
  %16 = getelementptr inbounds i8, ptr %.0.lcssa, i64 8
  %17 = load i32, ptr %8, align 4
  store i32 %17, ptr %16, align 8
  %18 = ptrtoint ptr %5 to i64
  %19 = ptrtoint ptr %.pre to i64
  %20 = sub i64 %18, %19
  %21 = sdiv exact i64 %20, 48
  %22 = trunc i64 %21 to i32
  store i32 %22, ptr %8, align 4
  br label %23

23:                                               ; preds = %2, %._crit_edge
  ret void
}